; Function Attrs: mustprogress uwtable
define void @_ZN5ImGui22DebugNodeTableSettingsEP18ImGuiTableSettings(ptr noundef readonly captures(none) %0) local_unnamed_addr #0 {
  %2 = load i32, ptr %0, align 4, !tbaa !332
  %3 = zext i32 %2 to i64
  %4 = inttoptr i64 %3 to ptr
  %5 = getelementptr inbounds nuw i8, ptr %0, i64 12
  %6 = load i16, ptr %5, align 4, !tbaa !335
  %7 = sext i16 %6 to i32
  %8 = tail call noundef zeroext i1 (ptr, ptr, ...) @_ZN5ImGui8TreeNodeEPKvPKcz(ptr noundef %4, ptr noundef nonnull @.str.35, i32 noundef %2, i32 noundef %7)
  br i1 %8, label %9, label %45

9:                                                ; preds = %1
  %10 = getelementptr inbounds nuw i8, ptr %0, i64 4
  %11 = load i32, ptr %10, align 4, !tbaa !337
  tail call void (ptr, ...) @_ZN5ImGui10BulletTextEPKcz(ptr noundef nonnull @.str.36, i32 noundef %11)
  %12 = load i16, ptr %5, align 4, !tbaa !335
  %13 = sext i16 %12 to i32
  %14 = getelementptr inbounds nuw i8, ptr %0, i64 14
  %15 = load i16, ptr %14, align 2, !tbaa !336
  %16 = sext i16 %15 to i32
  tail call void (ptr, ...) @_ZN5ImGui10BulletTextEPKcz(ptr noundef nonnull @.str.37, i32 noundef %13, i32 noundef %16)
  %17 = load i16, ptr %5, align 4, !tbaa !335
  %18 = icmp sgt i16 %17, 0
  br i1 %18, label %.lr.ph, label %._crit_edge

.lr.ph:                                           ; preds = %9
  %19 = getelementptr inbounds nuw i8, ptr %0, i64 20
  br label %20

._crit_edge:                                      ; preds = %.thread24, %9
  tail call void @_ZN5ImGui7TreePopEv()
  br label %45

20:                                               ; preds = %.lr.ph, %.thread24
  %indvars.iv = phi i64 [ 0, %.lr.ph ], [ %indvars.iv.next, %.thread24 ]
  %21 = getelementptr inbounds nuw %struct.ImGuiTableColumnSettings, ptr %19, i64 %indvars.iv
  %22 = getelementptr inbounds nuw i8, ptr %21, i64 12
  %23 = load i16, ptr %22, align 4, !tbaa !349
  %.not = icmp eq i16 %23, -1
  %.phi.trans.insert = getelementptr inbounds nuw i8, ptr %21, i64 14
  %.pre = load i8, ptr %.phi.trans.insert, align 2
  %.fr27 = freeze i8 %.pre
  br i1 %.not, label %.thread24, label %24

24:                                               ; preds = %20
  %25 = and i8 %.fr27, 3
  %26 = sext i16 %23 to i32
  %27 = icmp eq i8 %25, 1
  %28 = icmp eq i8 %25, 2
  %.str.40..str.41 = select i1 %28, ptr @.str.40, ptr @.str.41
  %spec.select = select i1 %27, ptr @.str.39, ptr %.str.40..str.41
  br label %.thread24

.thread24:                                        ; preds = %20, %24
  %29 = phi i32 [ %26, %24 ], [ -1, %20 ]
  %30 = phi ptr [ %spec.select, %24 ], [ @.str.41, %20 ]
  %.in.in = getelementptr inbounds nuw i8, ptr %21, i64 10
  %.in = load i16, ptr %.in.in, align 2, !tbaa !348
  %31 = sext i16 %.in to i32
  %32 = shl i8 %.fr27, 4
  %33 = ashr i8 %32, 6
  %34 = sext i8 %33 to i32
  %35 = and i8 %.fr27, 16
  %.not21 = icmp eq i8 %35, 0
  %36 = select i1 %.not21, ptr @.str.43, ptr @.str.42
  %37 = load float, ptr %21, align 4, !tbaa !347
  %38 = fpext float %37 to double
  %39 = getelementptr inbounds nuw i8, ptr %21, i64 4
  %40 = load i32, ptr %39, align 4, !tbaa !591
  %41 = trunc nuw nsw i64 %indvars.iv to i32
  tail call void (ptr, ...) @_ZN5ImGui10BulletTextEPKcz(ptr noundef nonnull @.str.38, i32 noundef %41, i32 noundef %31, i32 noundef %29, ptr noundef nonnull %30, i32 noundef %34, ptr noundef nonnull %36, double noundef %38, i32 noundef %40)
  %indvars.iv.next = add nuw nsw i64 %indvars.iv, 1
  %42 = load i16, ptr %5, align 4, !tbaa !335
  %43 = sext i16 %42 to i64
  %44 = icmp slt i64 %indvars.iv.next, %43
  br i1 %44, label %20, label %._crit_edge, !llvm.loop !614

45:                                               ; preds = %1, %._crit_edge
  ret void
}